; ModuleID = '36/99.c'
source_filename = "36/99.c"
target datalayout = "e-m:e-p270:32:32-p271:32:32-p272:64:64-i64:64-f80:128-n8:16:32:64-S128"
target triple = "x86_64-pc-linux-gnu"

@.str = private unnamed_addr constant [3 x i8] c"%s\00", align 1
@.str.1 = private unnamed_addr constant [4 x i8] c"NO\0A\00", align 1
@.str.2 = private unnamed_addr constant [5 x i8] c"YES\0A\00", align 1

; Function Attrs: noinline nounwind uwtable
define dso_local i32 @main() #0 {
  %1 = alloca i32, align 4
  %2 = alloca i32, align 4
  %3 = alloca i8*, align 8
  %4 = alloca i8*, align 8
  %5 = alloca i8*, align 8
  store i32 0, i32* %1, align 4
  store i32 0, i32* %2, align 4
  %6 = call noalias i8* @malloc(i64 30) #4
  store i8* %6, i8** %3, align 8
  %7 = call noalias i8* @malloc(i64 39) #4
  store i8* %7, i8** %4, align 8
  %8 = load i8*, i8** %4, align 8
  store i8* %8, i8** %5, align 8
  %9 = load i8*, i8** %3, align 8
  %10 = call i32 (i8*, ...) @__isoc99_scanf(i8* getelementptr inbounds ([3 x i8], [3 x i8]* @.str, i64 0, i64 0), i8* %9)
  %11 = load i8*, i8** %4, align 8
  %12 = call i32 (i8*, ...) @__isoc99_scanf(i8* getelementptr inbounds ([3 x i8], [3 x i8]* @.str, i64 0, i64 0), i8* %11)
  %13 = load i8*, i8** %4, align 8
  %14 = call i64 @strlen(i8* %13) #5
  %15 = load i8*, i8** %3, align 8
  %16 = call i64 @strlen(i8* %15) #5
  %17 = icmp ne i64 %14, %16
  br i1 %17, label %18, label %20

18:                                               ; preds = %0
  %19 = call i32 (i8*, ...) @printf(i8* getelementptr inbounds ([4 x i8], [4 x i8]* @.str.1, i64 0, i64 0))
  br label %64

20:                                               ; preds = %0
  br label %21

21:                                               ; preds = %55, %20
  %22 = load i8*, i8** %3, align 8
  %23 = load i8, i8* %22, align 1
  %24 = icmp ne i8 %23, 0
  br i1 %24, label %25, label %58

25:                                               ; preds = %21
  %26 = load i8*, i8** %5, align 8
  store i8* %26, i8** %4, align 8
  store i32 0, i32* %2, align 4
  br label %27

27:                                               ; preds = %42, %25
  %28 = load i8*, i8** %4, align 8
  %29 = load i8, i8* %28, align 1
  %30 = icmp ne i8 %29, 0
  br i1 %30, label %31, label %45

31:                                               ; preds = %27
  %32 = load i8*, i8** %3, align 8
  %33 = load i8, i8* %32, align 1
  %34 = sext i8 %33 to i32
  %35 = load i8*, i8** %4, align 8
  %36 = load i8, i8* %35, align 1
  %37 = sext i8 %36 to i32
  %38 = icmp eq i32 %34, %37
  br i1 %38, label %39, label %41

39:                                               ; preds = %31
  store i32 1, i32* %2, align 4
  %40 = load i8*, i8** %4, align 8
  store i8 32, i8* %40, align 1
  br label %45

41:                                               ; preds = %31
  br label %42

42:                                               ; preds = %41
  %43 = load i8*, i8** %4, align 8
  %44 = getelementptr inbounds i8, i8* %43, i32 1
  store i8* %44, i8** %4, align 8
  br label %27

45:                                               ; preds = %39, %27
  %46 = load i32, i32* %2, align 4
  %47 = icmp eq i32 %46, 1
  br i1 %47, label %48, label %49

48:                                               ; preds = %45
  br label %55

49:                                               ; preds = %45
  %50 = load i32, i32* %2, align 4
  %51 = icmp eq i32 %50, 0
  br i1 %51, label %52, label %54

52:                                               ; preds = %49
  %53 = call i32 (i8*, ...) @printf(i8* getelementptr inbounds ([4 x i8], [4 x i8]* @.str.1, i64 0, i64 0))
  br label %58

54:                                               ; preds = %49
  br label %55

55:                                               ; preds = %54, %48
  %56 = load i8*, i8** %3, align 8
  %57 = getelementptr inbounds i8, i8* %56, i32 1
  store i8* %57, i8** %3, align 8
  br label %21

58:                                               ; preds = %52, %21
  %59 = load i32, i32* %2, align 4
  %60 = icmp eq i32 %59, 1
  br i1 %60, label %61, label %63

61:                                               ; preds = %58
  %62 = call i32 (i8*, ...) @printf(i8* getelementptr inbounds ([5 x i8], [5 x i8]* @.str.2, i64 0, i64 0))
  br label %63

63:                                               ; preds = %61, %58
  br label %64

64:                                               ; preds = %63, %18
  ret i32 0
}

; Function Attrs: nounwind
declare dso_local noalias i8* @malloc(i64) #1

declare dso_local i32 @__isoc99_scanf(i8*, ...) #2

; Function Attrs: nounwind readonly
declare dso_local i64 @strlen(i8*) #3

declare dso_local i32 @printf(i8*, ...) #2


!llvm.module.flags = !{!0}
!llvm.ident = !{!1}

!0 = !{i32 1, !"wchar_size", i32 4}
!1 = !{!"clang version 10.0.0-4ubuntu1 "}
