; ModuleID = 'source-C-CXX/35/99.c'
source_filename = "source-C-CXX/35/99.c"
target datalayout = "e-m:e-p270:32:32-p271:32:32-p272:64:64-i64:64-f80:128-n8:16:32:64-S128"
target triple = "x86_64-pc-linux-gnu"

@.str = private unnamed_addr constant [3 x i8] c"%s\00", align 1
@str = private unnamed_addr constant [4 x i8] c"YES\00", align 1
@str.4 = private unnamed_addr constant [3 x i8] c"NO\00", align 1

; Function Attrs: nofree nounwind sspstrong uwtable
define dso_local i32 @main() local_unnamed_addr #0 {
  %1 = tail call noalias align 16 dereferenceable_or_null(30) i8* @malloc(i64 30) #5
  %2 = tail call noalias align 16 dereferenceable_or_null(39) i8* @malloc(i64 39) #5
  %3 = tail call i32 (i8*, ...) @__isoc99_scanf(i8* getelementptr inbounds ([3 x i8], [3 x i8]* @.str, i64 0, i64 0), i8* %1)
  %4 = tail call i32 (i8*, ...) @__isoc99_scanf(i8* getelementptr inbounds ([3 x i8], [3 x i8]* @.str, i64 0, i64 0), i8* %2)
  %5 = tail call i64 @strlen(i8* noundef nonnull dereferenceable(1) %2) #6
  %6 = tail call i64 @strlen(i8* noundef nonnull dereferenceable(1) %1) #6
  %7 = icmp eq i64 %5, %6
  br i1 %7, label %8, label %28

8:                                                ; preds = %0
  %9 = load i8, i8* %1, align 16, !tbaa !5
  %10 = icmp eq i8 %9, 0
  br i1 %10, label %31, label %11

11:                                               ; preds = %8, %24
  %12 = phi i8 [ %26, %24 ], [ %9, %8 ]
  %13 = phi i8* [ %25, %24 ], [ %1, %8 ]
  %14 = load i8, i8* %2, align 16, !tbaa !5
  %15 = icmp eq i8 %14, 0
  br i1 %15, label %28, label %16

16:                                               ; preds = %11, %20
  %17 = phi i8 [ %22, %20 ], [ %14, %11 ]
  %18 = phi i8* [ %21, %20 ], [ %2, %11 ]
  %19 = icmp eq i8 %12, %17
  br i1 %19, label %24, label %20

20:                                               ; preds = %16
  %21 = getelementptr inbounds i8, i8* %18, i64 1
  %22 = load i8, i8* %21, align 1, !tbaa !5
  %23 = icmp eq i8 %22, 0
  br i1 %23, label %28, label %16, !llvm.loop !8

24:                                               ; preds = %16
  store i8 32, i8* %18, align 1, !tbaa !5
  %25 = getelementptr inbounds i8, i8* %13, i64 1
  %26 = load i8, i8* %25, align 1, !tbaa !5
  %27 = icmp eq i8 %26, 0
  br i1 %27, label %28, label %11, !llvm.loop !10

28:                                               ; preds = %24, %11, %20, %0
  %29 = phi i8* [ getelementptr inbounds ([3 x i8], [3 x i8]* @str.4, i64 0, i64 0), %0 ], [ getelementptr inbounds ([3 x i8], [3 x i8]* @str.4, i64 0, i64 0), %20 ], [ getelementptr inbounds ([3 x i8], [3 x i8]* @str.4, i64 0, i64 0), %11 ], [ getelementptr inbounds ([4 x i8], [4 x i8]* @str, i64 0, i64 0), %24 ]
  %30 = tail call i32 @puts(i8* nonnull dereferenceable(1) %29)
  br label %31

31:                                               ; preds = %28, %8
  ret i32 0
}

; Function Attrs: inaccessiblememonly mustprogress nofree nounwind willreturn
declare noalias noundef align 16 i8* @malloc(i64 noundef) local_unnamed_addr #1

; Function Attrs: nofree nounwind
declare noundef i32 @__isoc99_scanf(i8* nocapture noundef readonly, ...) local_unnamed_addr #2

; Function Attrs: argmemonly mustprogress nofree nounwind readonly willreturn
declare i64 @strlen(i8* nocapture) local_unnamed_addr #3

; Function Attrs: nofree nounwind
declare noundef i32 @puts(i8* nocapture noundef readonly) local_unnamed_addr #4


!llvm.module.flags = !{!0, !1, !2, !3}
!llvm.ident = !{!4}

!0 = !{i32 1, !"wchar_size", i32 4}
!1 = !{i32 7, !"PIC Level", i32 2}
!2 = !{i32 7, !"PIE Level", i32 2}
!3 = !{i32 7, !"uwtable", i32 1}
!4 = !{!"clang version 13.0.0"}
!5 = !{!6, !6, i64 0}
!6 = !{!"omnipotent char", !7, i64 0}
!7 = !{!"Simple C/C++ TBAA"}
!8 = distinct !{!8, !9}
!9 = !{!"llvm.loop.mustprogress"}
!10 = distinct !{!10, !9}
